; Function Attrs: nounwind uwtable
define dso_local void @mark_dummy_rel(ptr noundef %0) local_unnamed_addr #0 {
  %2 = getelementptr inbounds nuw i8, ptr %0, i64 40
  %3 = load ptr, ptr %2, align 8
  %4 = icmp eq ptr %3, null
  br i1 %4, label %.loopexit.i, label %5

5:                                                ; preds = %1
  %6 = getelementptr i8, ptr %3, i64 16
  %.val.i = load ptr, ptr %6, align 8
  br label %7

7:                                                ; preds = %9, %5
  %.0.in.i = phi ptr [ %.val.i, %5 ], [ %.1.in.i, %9 ]
  %.0.i = load ptr, ptr %.0.in.i, align 8
  %8 = load i32, ptr %.0.i, align 4
  switch i32 %8, label %.loopexit.i [
    i32 300, label %9
    i32 301, label %9
    i32 289, label %10
  ]

9:                                                ; preds = %7, %7
  %.1.in.i = getelementptr inbounds nuw i8, ptr %.0.i, i64 80
  br label %7

10:                                               ; preds = %7
  %11 = getelementptr inbounds nuw i8, ptr %.0.i, i64 80
  %12 = load ptr, ptr %11, align 8
  %13 = icmp eq ptr %12, null
  br i1 %13, label %is_dummy_rel.exit, label %.loopexit.i

.loopexit.i:                                      ; preds = %7, %10, %1
  %14 = tail call ptr @GetMemoryChunkContext(ptr noundef %0) #9
  %15 = load ptr, ptr @CurrentMemoryContext, align 8
  store ptr %14, ptr @CurrentMemoryContext, align 8
  %16 = getelementptr inbounds nuw i8, ptr %0, i64 16
  store double 0.000000e+00, ptr %16, align 8
  store ptr null, ptr %2, align 8
  %17 = getelementptr inbounds nuw i8, ptr %0, i64 56
  store ptr null, ptr %17, align 8
  %18 = getelementptr inbounds nuw i8, ptr %0, i64 104
  %19 = load ptr, ptr %18, align 8
  %20 = tail call ptr @create_append_path(ptr noundef null, ptr noundef %0, ptr noundef null, ptr noundef null, ptr noundef null, ptr noundef %19, i32 noundef 0, i1 noundef zeroext false, double noundef -1.000000e+00) #9
  tail call void @add_path(ptr noundef %0, ptr noundef %20) #9
  tail call void @set_cheapest(ptr noundef %0) #9
  store ptr %15, ptr @CurrentMemoryContext, align 8
  br label %is_dummy_rel.exit

is_dummy_rel.exit:                                ; preds = %10, %.loopexit.i
  ret void
}